target datalayout = "e-m:e-p270:32:32-p271:32:32-p272:64:64-i64:64-i128:128-f80:128-n8:16:32:64-S128"
target triple = "x86_64-pc-linux-gnu"

%struct._zval_struct = type { %union._zend_value, %union.anon.0, %union.anon.3 }
%union._zend_value = type { i64 }
%union.anon.0 = type { i32 }
%union.anon.3 = type { i32 }
%struct._zend_ast_zval = type { i16, i16, %struct._zval_struct }
%struct._zend_ast = type { i16, i16, i32, [1 x ptr] }

; Function Attrs: nounwind uwtable
define hidden ptr @zend_ast_fetch_class(ptr noundef %0, ptr noundef %1) #0 {
  %3 = alloca ptr, align 8
  %4 = alloca ptr, align 8
  %5 = alloca ptr, align 8
  %6 = alloca ptr, align 8
  %7 = alloca ptr, align 8
  store ptr %0, ptr %6, align 8
  store ptr %1, ptr %7, align 8
  %8 = load ptr, ptr %6, align 8
  store ptr %8, ptr %4, align 8
  %9 = load ptr, ptr %4, align 8
  store ptr %9, ptr %3, align 8
  %10 = load ptr, ptr %3, align 8
  %11 = load i16, ptr %10, align 8
  %12 = zext i16 %11 to i32
  %13 = icmp eq i32 %12, 64
  call void @llvm.assume(i1 %13)
  %14 = load ptr, ptr %3, align 8
  %15 = getelementptr inbounds %struct._zend_ast_zval, ptr %14, i32 0, i32 2
  store ptr %15, ptr %5, align 8
  %16 = load ptr, ptr %5, align 8
  %17 = load ptr, ptr %16, align 8
  %18 = load ptr, ptr %6, align 8
  %19 = getelementptr inbounds %struct._zend_ast, ptr %18, i32 0, i32 1
  %20 = load i16, ptr %19, align 2
  %21 = zext i16 %20 to i32
  %22 = ashr i32 %21, 2
  %23 = or i32 %22, 512
  %24 = load ptr, ptr %7, align 8
  %25 = call ptr @zend_fetch_class_with_scope(ptr noundef %17, i32 noundef %23, ptr noundef %24)
  ret ptr %25
}