; Function Attrs: nounwind uwtable
define hidden ptr @zend_ast_fetch_class(ptr nocapture noundef readonly %0, ptr noundef %1) local_unnamed_addr #0 {
  %3 = load i16, ptr %0, align 8
  %4 = icmp eq i16 %3, 64
  tail call void @llvm.assume(i1 %4)
  %5 = getelementptr inbounds i8, ptr %0, i64 8
  %6 = load ptr, ptr %5, align 8
  %7 = getelementptr inbounds i8, ptr %0, i64 2
  %8 = load i16, ptr %7, align 2
  %9 = lshr i16 %8, 2
  %10 = or i16 %9, 512
  %11 = zext nneg i16 %10 to i32
  %12 = tail call ptr @zend_fetch_class_with_scope(ptr noundef %6, i32 noundef %11, ptr noundef %1) #14
  ret ptr %12
}